; Function Attrs: nounwind uwtable
define dso_local i64 @array_shuffle(ptr noundef readonly captures(none) %0) local_unnamed_addr #0 {
  %2 = getelementptr inbounds nuw i8, ptr %0, i64 32
  %3 = load i64, ptr %2, align 8
  %4 = inttoptr i64 %3 to ptr
  %5 = tail call ptr @pg_detoast_datum(ptr noundef %4) #10
  %6 = getelementptr inbounds nuw i8, ptr %5, i64 4
  %7 = load i32, ptr %6, align 4
  %8 = icmp slt i32 %7, 1
  br i1 %8, label %29, label %9

9:                                                ; preds = %1
  %10 = getelementptr inbounds nuw i8, ptr %5, i64 16
  %11 = load i32, ptr %10, align 4
  %12 = icmp slt i32 %11, 2
  br i1 %12, label %29, label %13

13:                                               ; preds = %9
  %14 = getelementptr inbounds nuw i8, ptr %5, i64 12
  %15 = load i32, ptr %14, align 4
  %16 = load ptr, ptr %0, align 8
  %17 = getelementptr inbounds nuw i8, ptr %16, i64 24
  %18 = load ptr, ptr %17, align 8
  %19 = icmp eq ptr %18, null
  br i1 %19, label %22, label %20

20:                                               ; preds = %13
  %21 = load i32, ptr %18, align 8
  %.not = icmp eq i32 %21, %15
  br i1 %.not, label %26, label %22

22:                                               ; preds = %20, %13
  %23 = tail call ptr @lookup_type_cache(i32 noundef %15, i32 noundef 0) #10
  %24 = load ptr, ptr %0, align 8
  %25 = getelementptr inbounds nuw i8, ptr %24, i64 24
  store ptr %23, ptr %25, align 8
  %.pre = load i32, ptr %10, align 4
  br label %26

26:                                               ; preds = %22, %20
  %27 = phi i32 [ %.pre, %22 ], [ %11, %20 ]
  %.0 = phi ptr [ %23, %22 ], [ %18, %20 ]
  %28 = tail call fastcc ptr @array_shuffle_n(ptr noundef nonnull %5, i32 noundef %27, i1 noundef zeroext true, i32 noundef %15, ptr noundef %.0)
  br label %29

29:                                               ; preds = %1, %9, %26
  %.017.in = phi ptr [ %28, %26 ], [ %5, %9 ], [ %5, %1 ]
  %.017 = ptrtoint ptr %.017.in to i64
  ret i64 %.017
}